; Function Attrs: nounwind uwtable
define void @Java_sun_awt_X11_XlibWrapper_ExitSecondaryLoop(ptr noundef %0, ptr nocapture noundef readnone %1) local_unnamed_addr #0 {
  store i1 false, ptr @exitSecondaryLoop, align 4
  %3 = load ptr, ptr %0, align 8
  %4 = getelementptr inbounds i8, ptr %3, i64 1128
  %5 = load ptr, ptr %4, align 8
  %6 = load ptr, ptr @tkClass, align 8
  %7 = load ptr, ptr @awtNotifyAllMID, align 8
  tail call void (ptr, ptr, ptr, ...) %5(ptr noundef nonnull %0, ptr noundef %6, ptr noundef %7) #14
  ret void
}